; Function Attrs: cold nounwind optsize uwtable
define internal range(i32 -2147483648, 1) i32 @decode_init(ptr noundef %0) #0 {
  %2 = getelementptr inbounds nuw i8, ptr %0, i64 32
  %3 = load ptr, ptr %2, align 8, !tbaa !4
  %4 = getelementptr inbounds nuw i8, ptr %0, i64 112
  %5 = load i32, ptr %4, align 8, !tbaa !27
  %6 = getelementptr inbounds nuw i8, ptr %0, i64 116
  %7 = load i32, ptr %6, align 4, !tbaa !28
  %8 = tail call i32 @av_image_check_size(i32 noundef %5, i32 noundef %7, i32 noundef 0, ptr noundef %0) #4
  %9 = load i32, ptr %4, align 8, !tbaa !27
  %10 = and i32 %9, 3
  %.not = icmp eq i32 %10, 0
  %.pre = load i32, ptr %6, align 4, !tbaa !28
  %11 = and i32 %.pre, 3
  %.not19 = icmp eq i32 %11, 0
  %or.cond = select i1 %.not, i1 %.not19, i1 false
  br i1 %or.cond, label %12, label %.thread

12:                                               ; preds = %1
  %13 = icmp slt i32 %8, 0
  br i1 %13, label %.thread, label %14

.thread:                                          ; preds = %1, %12
  %.023 = phi i32 [ %8, %12 ], [ -1094995529, %1 ]
  tail call void (ptr, i32, ptr, ...) @av_log(ptr noundef nonnull %0, i32 noundef 16, ptr noundef nonnull @.str.2, i32 noundef %9, i32 noundef %.pre) #4
  br label %27

14:                                               ; preds = %12
  %15 = getelementptr inbounds nuw i8, ptr %0, i64 136
  store i32 5, ptr %15, align 8, !tbaa !29
  %16 = tail call ptr @av_frame_alloc() #4
  %17 = getelementptr inbounds nuw i8, ptr %3, i64 48
  store ptr %16, ptr %17, align 8, !tbaa !30
  %.not20 = icmp eq ptr %16, null
  br i1 %.not20, label %27, label %18

18:                                               ; preds = %14
  %19 = load i32, ptr %4, align 8, !tbaa !27
  %20 = ashr i32 %19, 1
  %21 = sext i32 %20 to i64
  %22 = load i32, ptr %6, align 4, !tbaa !28
  %23 = ashr i32 %22, 1
  %24 = sext i32 %23 to i64
  %25 = tail call noalias ptr @av_calloc(i64 noundef %21, i64 noundef %24) #4
  %26 = getelementptr inbounds nuw i8, ptr %3, i64 40
  store ptr %25, ptr %26, align 8, !tbaa !34
  %.not21 = icmp eq ptr %25, null
  %. = select i1 %.not21, i32 -12, i32 0
  br label %27

27:                                               ; preds = %18, %14, %.thread
  %.018 = phi i32 [ %.023, %.thread ], [ -12, %14 ], [ %., %18 ]
  ret i32 %.018
}